target datalayout = "e-m:e-p270:32:32-p271:32:32-p272:64:64-i64:64-i128:128-f80:128-n8:16:32:64-S128"
target triple = "x86_64-pc-linux-gnu"

; Function Attrs: mustprogress nounwind uwtable
define hidden noundef i32 @_ZN5zxing6common11StringUtils11is_gbk_codeEPci(ptr noundef %0, i32 noundef %1) #2 align 2 {
  %3 = alloca i32, align 4
  %4 = alloca ptr, align 8
  %5 = alloca i32, align 4
  %6 = alloca i8, align 1
  %7 = alloca i32, align 4
  %8 = alloca i32, align 4
  %9 = alloca i8, align 1
  %10 = alloca i8, align 1
  %11 = alloca i32, align 4
  %12 = alloca i32, align 4
  %13 = alloca i32, align 4
  store ptr %0, ptr %4, align 8, !tbaa !3
  store i32 %1, ptr %5, align 4, !tbaa !8
  call void @llvm.lifetime.start.p0(i64 1, ptr %6) #14
  store i8 0, ptr %6, align 1, !tbaa !13
  call void @llvm.lifetime.start.p0(i64 4, ptr %7) #14
  store i32 0, ptr %7, align 4, !tbaa !8
  call void @llvm.lifetime.start.p0(i64 4, ptr %8) #14
  store i32 0, ptr %8, align 4, !tbaa !8
  call void @llvm.lifetime.start.p0(i64 1, ptr %9) #14
  store i8 0, ptr %9, align 1, !tbaa !13
  call void @llvm.lifetime.start.p0(i64 1, ptr %10) #14
  store i8 0, ptr %10, align 1, !tbaa !13
  call void @llvm.lifetime.start.p0(i64 4, ptr %11) #14
  store i32 0, ptr %11, align 4, !tbaa !8
  br label %14

14:                                               ; preds = %63, %56, %31, %2
  %15 = load i32, ptr %11, align 4, !tbaa !8
  %16 = load i32, ptr %5, align 4, !tbaa !8
  %17 = icmp slt i32 %15, %16
  br i1 %17, label %19, label %18

18:                                               ; preds = %14
  call void @llvm.lifetime.end.p0(i64 4, ptr %11) #14
  br label %68

19:                                               ; preds = %14
  %20 = load ptr, ptr %4, align 8, !tbaa !3
  %21 = load i32, ptr %11, align 4, !tbaa !8
  %22 = sext i32 %21 to i64
  %23 = getelementptr inbounds i8, ptr %20, i64 %22
  %24 = load i8, ptr %23, align 1, !tbaa !13
  store i8 %24, ptr %10, align 1, !tbaa !13
  %25 = load i8, ptr %10, align 1, !tbaa !13
  %26 = zext i8 %25 to i32
  %27 = ashr i32 %26, 7
  %28 = load i8, ptr %6, align 1, !tbaa !13
  %29 = zext i8 %28 to i32
  %30 = icmp eq i32 %27, %29
  br i1 %30, label %31, label %34

31:                                               ; preds = %19
  %32 = load i32, ptr %11, align 4, !tbaa !8
  %33 = add nsw i32 %32, 1
  store i32 %33, ptr %11, align 4, !tbaa !8
  br label %14, !llvm.loop !33

34:                                               ; preds = %19
  %35 = load i8, ptr %10, align 1, !tbaa !13
  %36 = zext i8 %35 to i32
  %37 = icmp sge i32 %36, 129
  br i1 %37, label %38, label %62

38:                                               ; preds = %34
  %39 = load i8, ptr %10, align 1, !tbaa !13
  %40 = zext i8 %39 to i32
  %41 = icmp sle i32 %40, 254
  br i1 %41, label %42, label %62

42:                                               ; preds = %38
  %43 = load ptr, ptr %4, align 8, !tbaa !3
  %44 = load i32, ptr %11, align 4, !tbaa !8
  %45 = add nsw i32 %44, 1
  %46 = sext i32 %45 to i64
  %47 = getelementptr inbounds i8, ptr %43, i64 %46
  %48 = load i8, ptr %47, align 1, !tbaa !13
  store i8 %48, ptr %9, align 1, !tbaa !13
  %49 = load i8, ptr %9, align 1, !tbaa !13
  %50 = zext i8 %49 to i32
  %51 = icmp sge i32 %50, 64
  br i1 %51, label %52, label %61

52:                                               ; preds = %42
  %53 = load i8, ptr %9, align 1, !tbaa !13
  %54 = zext i8 %53 to i32
  %55 = icmp sle i32 %54, 254
  br i1 %55, label %56, label %61

56:                                               ; preds = %52
  %57 = load i32, ptr %7, align 4, !tbaa !8
  %58 = add nsw i32 %57, 1
  store i32 %58, ptr %7, align 4, !tbaa !8
  %59 = load i32, ptr %11, align 4, !tbaa !8
  %60 = add nsw i32 %59, 2
  store i32 %60, ptr %11, align 4, !tbaa !8
  br label %14, !llvm.loop !33

61:                                               ; preds = %52, %42
  br label %62

62:                                               ; preds = %61, %38, %34
  br label %63

63:                                               ; preds = %62
  %64 = load i32, ptr %8, align 4, !tbaa !8
  %65 = add nsw i32 %64, 1
  store i32 %65, ptr %8, align 4, !tbaa !8
  %66 = load i32, ptr %11, align 4, !tbaa !8
  %67 = add nsw i32 %66, 2
  store i32 %67, ptr %11, align 4, !tbaa !8
  br label %14, !llvm.loop !33

68:                                               ; preds = %18
  %69 = load i32, ptr %7, align 4, !tbaa !8
  %70 = load i32, ptr %8, align 4, !tbaa !8
  %71 = add nsw i32 %69, %70
  %72 = icmp sgt i32 %71, 0
  br i1 %72, label %73, label %85

73:                                               ; preds = %68
  call void @llvm.lifetime.start.p0(i64 4, ptr %12) #14
  %74 = load i32, ptr %7, align 4, !tbaa !8
  %75 = mul nsw i32 100, %74
  %76 = load i32, ptr %7, align 4, !tbaa !8
  %77 = load i32, ptr %8, align 4, !tbaa !8
  %78 = add nsw i32 %76, %77
  %79 = sdiv i32 %75, %78
  store i32 %79, ptr %12, align 4, !tbaa !8
  %80 = load i32, ptr %12, align 4, !tbaa !8
  %81 = icmp eq i32 %80, 100
  br i1 %81, label %82, label %83

82:                                               ; preds = %73
  store i32 1, ptr %3, align 4
  store i32 1, ptr %13, align 4
  br label %84

83:                                               ; preds = %73
  store i32 0, ptr %3, align 4
  store i32 1, ptr %13, align 4
  br label %84

84:                                               ; preds = %83, %82
  call void @llvm.lifetime.end.p0(i64 4, ptr %12) #14
  br label %86

85:                                               ; preds = %68
  store i32 0, ptr %3, align 4
  store i32 1, ptr %13, align 4
  br label %86

86:                                               ; preds = %85, %84
  call void @llvm.lifetime.end.p0(i64 1, ptr %10) #14
  call void @llvm.lifetime.end.p0(i64 1, ptr %9) #14
  call void @llvm.lifetime.end.p0(i64 4, ptr %8) #14
  call void @llvm.lifetime.end.p0(i64 4, ptr %7) #14
  call void @llvm.lifetime.end.p0(i64 1, ptr %6) #14
  %87 = load i32, ptr %3, align 4
  ret i32 %87
}