; Function Attrs: mustprogress nofree norecurse nosync nounwind willreturn memory(argmem: read) uwtable
define hidden noundef range(i32 0, 2) i32 @_ZN5zxing6common11StringUtils11is_gbk_codeEPci(ptr noundef readonly captures(none) %0, i32 noundef %1) local_unnamed_addr #6 align 2 {
  %invariant.gep = getelementptr i8, ptr %0, i64 1
  %3 = icmp sgt i32 %1, 0
  br i1 %3, label %.lr.ph.lr.ph.preheader, label %.outer32._crit_edge

.lr.ph.lr.ph.preheader:                           ; preds = %2
  %4 = zext nneg i32 %1 to i64
  br label %.lr.ph.lr.ph

.lr.ph.lr.ph:                                     ; preds = %.lr.ph.lr.ph.preheader, %.outer
  %.028.ph51 = phi i32 [ %20, %.outer ], [ 0, %.lr.ph.lr.ph.preheader ]
  %.029.ph50 = phi i32 [ %.029.ph3343, %.outer ], [ 0, %.lr.ph.lr.ph.preheader ]
  %.030.ph49 = phi i32 [ %19, %.outer ], [ 0, %.lr.ph.lr.ph.preheader ]
  br label %.lr.ph

.lr.ph:                                           ; preds = %.lr.ph.lr.ph, %.outer32
  %.028.ph3444 = phi i32 [ %.028.ph51, %.lr.ph.lr.ph ], [ %23, %.outer32 ]
  %.029.ph3343 = phi i32 [ %.029.ph50, %.lr.ph.lr.ph ], [ %22, %.outer32 ]
  %5 = sext i32 %.028.ph3444 to i64
  br label %8

.outer32._crit_edge:                              ; preds = %.outer, %.outer32, %12, %2
  %.030.ph.lcssa = phi i32 [ 0, %2 ], [ %.030.ph49, %12 ], [ %.030.ph49, %.outer32 ], [ %19, %.outer ]
  %.029.ph33.lcssa37 = phi i32 [ 0, %2 ], [ %.029.ph3343, %12 ], [ %22, %.outer32 ], [ %.029.ph3343, %.outer ]
  %6 = add nsw i32 %.029.ph33.lcssa37, %.030.ph.lcssa
  %7 = icmp sgt i32 %6, 0
  br i1 %7, label %25, label %29

8:                                                ; preds = %.lr.ph, %12
  %indvars.iv = phi i64 [ %5, %.lr.ph ], [ %indvars.iv.next, %12 ]
  %9 = getelementptr inbounds i8, ptr %0, i64 %indvars.iv
  %10 = load i8, ptr %9, align 1, !tbaa !12
  %11 = icmp sgt i8 %10, -1
  br i1 %11, label %12, label %14

12:                                               ; preds = %8
  %indvars.iv.next = add nsw i64 %indvars.iv, 1
  %13 = icmp slt i64 %indvars.iv.next, %4
  br i1 %13, label %8, label %.outer32._crit_edge, !llvm.loop !19

14:                                               ; preds = %8
  %15 = trunc nsw i64 %indvars.iv to i32
  switch i8 %10, label %16 [
    i8 -1, label %.outer32
    i8 -128, label %.outer32
  ]

16:                                               ; preds = %14
  %gep = getelementptr i8, ptr %invariant.gep, i64 %indvars.iv
  %17 = load i8, ptr %gep, align 1, !tbaa !12
  %18 = add i8 %17, -64
  %or.cond5 = icmp ult i8 %18, -65
  br i1 %or.cond5, label %.outer, label %.outer32

.outer:                                           ; preds = %16
  %19 = add nuw nsw i32 %.030.ph49, 1
  %20 = add nsw i32 %15, 2
  %21 = icmp slt i32 %20, %1
  br i1 %21, label %.lr.ph.lr.ph, label %.outer32._crit_edge, !llvm.loop !19

.outer32:                                         ; preds = %14, %14, %16
  %22 = add nsw i32 %.029.ph3343, 1
  %23 = add nsw i32 %15, 2
  %24 = icmp slt i32 %23, %1
  br i1 %24, label %.lr.ph, label %.outer32._crit_edge, !llvm.loop !19

25:                                               ; preds = %.outer32._crit_edge
  %26 = mul nsw i32 %.030.ph.lcssa, 100
  %27 = sdiv i32 %26, %6
  %28 = icmp eq i32 %27, 100
  %. = zext i1 %28 to i32
  br label %29

29:                                               ; preds = %.outer32._crit_edge, %25
  %.1 = phi i32 [ %., %25 ], [ 0, %.outer32._crit_edge ]
  ret i32 %.1
}